target datalayout = "e-m:e-p270:32:32-p271:32:32-p272:64:64-i64:64-i128:128-f80:128-n8:16:32:64-S128"
target triple = "x86_64-pc-linux-gnu"

; Function Attrs: nounwind uwtable
define hidden i64 @png_safecat(ptr noundef %0, i64 noundef %1, i64 noundef %2, ptr noundef %3) #1 {
  %5 = alloca ptr, align 8
  %6 = alloca i64, align 8
  %7 = alloca i64, align 8
  %8 = alloca ptr, align 8
  store ptr %0, ptr %5, align 8
  store i64 %1, ptr %6, align 8
  store i64 %2, ptr %7, align 8
  store ptr %3, ptr %8, align 8
  %9 = load ptr, ptr %5, align 8
  %10 = icmp ne ptr %9, null
  br i1 %10, label %11, label %44

11:                                               ; preds = %4
  %12 = load i64, ptr %7, align 8
  %13 = load i64, ptr %6, align 8
  %14 = icmp ult i64 %12, %13
  br i1 %14, label %15, label %44

15:                                               ; preds = %11
  %16 = load ptr, ptr %8, align 8
  %17 = icmp ne ptr %16, null
  br i1 %17, label %18, label %40

18:                                               ; preds = %15
  br label %19

19:                                               ; preds = %31, %18
  %20 = load ptr, ptr %8, align 8
  %21 = load i8, ptr %20, align 1
  %22 = sext i8 %21 to i32
  %23 = icmp ne i32 %22, 0
  br i1 %23, label %24, label %29

24:                                               ; preds = %19
  %25 = load i64, ptr %7, align 8
  %26 = load i64, ptr %6, align 8
  %27 = sub i64 %26, 1
  %28 = icmp ult i64 %25, %27
  br label %29

29:                                               ; preds = %24, %19
  %30 = phi i1 [ false, %19 ], [ %28, %24 ]
  br i1 %30, label %31, label %39

31:                                               ; preds = %29
  %32 = load ptr, ptr %8, align 8
  %33 = getelementptr inbounds i8, ptr %32, i32 1
  store ptr %33, ptr %8, align 8
  %34 = load i8, ptr %32, align 1
  %35 = load ptr, ptr %5, align 8
  %36 = load i64, ptr %7, align 8
  %37 = add i64 %36, 1
  store i64 %37, ptr %7, align 8
  %38 = getelementptr inbounds i8, ptr %35, i64 %36
  store i8 %34, ptr %38, align 1
  br label %19, !llvm.loop !6

39:                                               ; preds = %29
  br label %40

40:                                               ; preds = %39, %15
  %41 = load ptr, ptr %5, align 8
  %42 = load i64, ptr %7, align 8
  %43 = getelementptr inbounds i8, ptr %41, i64 %42
  store i8 0, ptr %43, align 1
  br label %44

44:                                               ; preds = %40, %11, %4
  %45 = load i64, ptr %7, align 8
  ret i64 %45
}

; Function Attrs: nounwind uwtable
define hidden void @png_warning_parameter(ptr noundef %0, i32 noundef %1, ptr noundef %2) #1 {
  %4 = alloca ptr, align 8
  %5 = alloca i32, align 4
  %6 = alloca ptr, align 8
  store ptr %0, ptr %4, align 8
  store i32 %1, ptr %5, align 4
  store ptr %2, ptr %6, align 8
  %7 = load i32, ptr %5, align 4
  %8 = icmp sgt i32 %7, 0
  br i1 %8, label %9, label %21

9:                                                ; preds = %3
  %10 = load i32, ptr %5, align 4
  %11 = icmp sle i32 %10, 8
  br i1 %11, label %12, label %21

12:                                               ; preds = %9
  %13 = load ptr, ptr %4, align 8
  %14 = load i32, ptr %5, align 4
  %15 = sub nsw i32 %14, 1
  %16 = sext i32 %15 to i64
  %17 = getelementptr inbounds [32 x i8], ptr %13, i64 %16
  %18 = getelementptr inbounds [32 x i8], ptr %17, i64 0, i64 0
  %19 = load ptr, ptr %6, align 8
  %20 = call i64 @png_safecat(ptr noundef %18, i64 noundef 32, i64 noundef 0, ptr noundef %19)
  br label %21

21:                                               ; preds = %12, %9, %3
  ret void
}