; Function Attrs: nofree norecurse nosync nounwind memory(read, argmem: readwrite, inaccessiblemem: none) uwtable
define hidden void @png_warning_parameter(ptr noundef writeonly %0, i32 noundef %1, ptr noundef readonly %2) local_unnamed_addr #1 {
  %4 = add i32 %1, -1
  %or.cond = icmp ult i32 %4, 8
  br i1 %or.cond, label %5, label %png_safecat.exit

5:                                                ; preds = %3
  %6 = zext nneg i32 %1 to i64
  %7 = getelementptr [32 x i8], ptr %0, i64 %6
  %8 = getelementptr i8, ptr %7, i64 -32
  %.not.i.not = icmp eq ptr %8, null
  br i1 %.not.i.not, label %png_safecat.exit, label %9

9:                                                ; preds = %5
  %.not18.i = icmp eq ptr %2, null
  br i1 %.not18.i, label %.loopexit.i, label %.preheader.i

.preheader.i:                                     ; preds = %9
  %10 = load i8, ptr %2, align 1
  %.not = icmp eq i8 %10, 0
  br i1 %.not, label %.loopexit.i, label %.lr.ph.i

.lr.ph.i:                                         ; preds = %.preheader.i, %.lr.ph.i
  %11 = phi i8 [ %15, %.lr.ph.i ], [ %10, %.preheader.i ]
  %.020.i = phi ptr [ %12, %.lr.ph.i ], [ %2, %.preheader.i ]
  %.01219.i = phi i64 [ %13, %.lr.ph.i ], [ 0, %.preheader.i ]
  %12 = getelementptr inbounds i8, ptr %.020.i, i64 1
  %13 = add nuw nsw i64 %.01219.i, 1
  %14 = getelementptr inbounds i8, ptr %8, i64 %.01219.i
  store i8 %11, ptr %14, align 1
  %15 = load i8, ptr %12, align 1
  %16 = icmp ne i8 %15, 0
  %17 = icmp ult i64 %.01219.i, 30
  %18 = and i1 %17, %16
  br i1 %18, label %.lr.ph.i, label %.loopexit.i, !llvm.loop !6

.loopexit.i:                                      ; preds = %.lr.ph.i, %.preheader.i, %9
  %.1.i = phi i64 [ 0, %9 ], [ 0, %.preheader.i ], [ %13, %.lr.ph.i ]
  %19 = getelementptr inbounds i8, ptr %8, i64 %.1.i
  store i8 0, ptr %19, align 1
  br label %png_safecat.exit

png_safecat.exit:                                 ; preds = %.loopexit.i, %5, %3
  ret void
}